target datalayout = "e-m:e-p270:32:32-p271:32:32-p272:64:64-i64:64-i128:128-f80:128-n8:16:32:64-S128"
target triple = "x86_64-pc-linux-gnu"

%"struct.Luau::Lexeme" = type { i32, %"struct.Luau::Location", i32, %union.anon }
%"struct.Luau::Location" = type { %"struct.Luau::Position", %"struct.Luau::Position" }
%"struct.Luau::Position" = type { i32, i32 }
%union.anon = type { ptr }

; Function Attrs: mustprogress nounwind uwtable
define dso_local void @_ZN4Luau6LexemeC2ERKNS_8LocationENS0_4TypeEPKc(ptr noundef nonnull align 8 dereferenceable(32) %0, ptr noundef nonnull align 4 dereferenceable(16) %1, i32 noundef %2, ptr noundef %3) unnamed_addr #2 align 2 {
  %5 = alloca ptr, align 8
  %6 = alloca ptr, align 8
  %7 = alloca i32, align 4
  %8 = alloca ptr, align 8
  store ptr %0, ptr %5, align 8, !tbaa !22
  store ptr %1, ptr %6, align 8, !tbaa !24
  store i32 %2, ptr %7, align 4, !tbaa !26
  store ptr %3, ptr %8, align 8, !tbaa !11
  %9 = load ptr, ptr %5, align 8
  %10 = getelementptr inbounds nuw %"struct.Luau::Lexeme", ptr %9, i32 0, i32 0
  %11 = load i32, ptr %7, align 4, !tbaa !26
  store i32 %11, ptr %10, align 8, !tbaa !28
  %12 = getelementptr inbounds nuw %"struct.Luau::Lexeme", ptr %9, i32 0, i32 1
  %13 = load ptr, ptr %6, align 8, !tbaa !24
  call void @llvm.memcpy.p0.p0.i64(ptr align 4 %12, ptr align 4 %13, i64 16, i1 false), !tbaa.struct !32
  %14 = getelementptr inbounds nuw %"struct.Luau::Lexeme", ptr %9, i32 0, i32 2
  store i32 0, ptr %14, align 4, !tbaa !33
  %15 = getelementptr inbounds nuw %"struct.Luau::Lexeme", ptr %9, i32 0, i32 3
  %16 = load ptr, ptr %8, align 8, !tbaa !11
  store ptr %16, ptr %15, align 8, !tbaa !34
  ret void
}