; Function Attrs: mustprogress nofree norecurse nosync nounwind willreturn memory(argmem: readwrite) uwtable
define dso_local void @_ZN4Luau6LexemeC2ERKNS_8LocationENS0_4TypeEPKc(ptr noundef nonnull writeonly align 8 captures(none) dereferenceable(32) initializes((0, 32)) %0, ptr noundef nonnull readonly align 4 captures(none) dereferenceable(16) %1, i32 noundef %2, ptr noundef %3) unnamed_addr #2 align 2 {
  store i32 %2, ptr %0, align 8, !tbaa !8
  %5 = getelementptr inbounds nuw i8, ptr %0, i64 4
  tail call void @llvm.memcpy.p0.p0.i64(ptr noundef nonnull align 4 dereferenceable(16) %5, ptr noundef nonnull align 4 dereferenceable(16) %1, i64 16, i1 false), !tbaa.struct !13
  %6 = getelementptr inbounds nuw i8, ptr %0, i64 20
  store i32 0, ptr %6, align 4, !tbaa !14
  %7 = getelementptr inbounds nuw i8, ptr %0, i64 24
  store ptr %3, ptr %7, align 8, !tbaa !15
  ret void
}